target datalayout = "e-m:e-p270:32:32-p271:32:32-p272:64:64-i64:64-i128:128-f80:128-n8:16:32:64-S128"
target triple = "x86_64-pc-linux-gnu"

%struct.Pf_Man_t_ = type { ptr, ptr, ptr, ptr, ptr, i32, ptr, %struct.Vec_Ptr_t_, %struct.Vec_Int_t_, %struct.Vec_Flt_t_, %struct.Vec_Int_t_, i32, i32, i32, i32, float, float, i64, [6 x double], i32 }
%struct.Vec_Ptr_t_ = type { i32, i32, ptr }
%struct.Vec_Flt_t_ = type { i32, i32, ptr }
%struct.Vec_Int_t_ = type { i32, i32, ptr }
%struct.Mio_Cell_t_ = type { ptr, i32, float, i64, [6 x float] }

; Function Attrs: nounwind uwtable
define void @Pf_StoDeriveMatches(ptr noundef %0, i32 noundef %1) #0 {
  %3 = alloca ptr, align 8
  %4 = alloca i32, align 4
  %5 = alloca [7 x ptr], align 16
  %6 = alloca [7 x ptr], align 16
  %7 = alloca [7 x i32], align 16
  %8 = alloca i32, align 4
  store ptr %0, ptr %3, align 8, !tbaa !3
  store i32 %1, ptr %4, align 4, !tbaa !12
  call void @llvm.lifetime.start.p0(i64 56, ptr %5) #13
  call void @llvm.lifetime.start.p0(i64 56, ptr %6) #13
  call void @llvm.lifetime.start.p0(i64 28, ptr %7) #13
  call void @llvm.lifetime.start.p0(i64 4, ptr %8) #13
  store i32 2, ptr %8, align 4, !tbaa !12
  br label %9

9:                                                ; preds = %18, %2
  %10 = load i32, ptr %8, align 4, !tbaa !12
  %11 = icmp sle i32 %10, 6
  br i1 %11, label %12, label %21

12:                                               ; preds = %9
  %13 = load i32, ptr %8, align 4, !tbaa !12
  %14 = call ptr @Extra_GreyCodeSchedule(i32 noundef %13)
  %15 = load i32, ptr %8, align 4, !tbaa !12
  %16 = sext i32 %15 to i64
  %17 = getelementptr inbounds [7 x ptr], ptr %5, i64 0, i64 %16
  store ptr %14, ptr %17, align 8, !tbaa !10
  br label %18

18:                                               ; preds = %12
  %19 = load i32, ptr %8, align 4, !tbaa !12
  %20 = add nsw i32 %19, 1
  store i32 %20, ptr %8, align 4, !tbaa !12
  br label %9, !llvm.loop !60

21:                                               ; preds = %9
  store i32 2, ptr %8, align 4, !tbaa !12
  br label %22

22:                                               ; preds = %31, %21
  %23 = load i32, ptr %8, align 4, !tbaa !12
  %24 = icmp sle i32 %23, 6
  br i1 %24, label %25, label %34

25:                                               ; preds = %22
  %26 = load i32, ptr %8, align 4, !tbaa !12
  %27 = call ptr @Extra_PermSchedule(i32 noundef %26)
  %28 = load i32, ptr %8, align 4, !tbaa !12
  %29 = sext i32 %28 to i64
  %30 = getelementptr inbounds [7 x ptr], ptr %6, i64 0, i64 %29
  store ptr %27, ptr %30, align 8, !tbaa !10
  br label %31

31:                                               ; preds = %25
  %32 = load i32, ptr %8, align 4, !tbaa !12
  %33 = add nsw i32 %32, 1
  store i32 %33, ptr %8, align 4, !tbaa !12
  br label %22, !llvm.loop !61

34:                                               ; preds = %22
  store i32 2, ptr %8, align 4, !tbaa !12
  br label %35

35:                                               ; preds = %44, %34
  %36 = load i32, ptr %8, align 4, !tbaa !12
  %37 = icmp sle i32 %36, 6
  br i1 %37, label %38, label %47

38:                                               ; preds = %35
  %39 = load i32, ptr %8, align 4, !tbaa !12
  %40 = call i32 @Extra_Factorial(i32 noundef %39)
  %41 = load i32, ptr %8, align 4, !tbaa !12
  %42 = sext i32 %41 to i64
  %43 = getelementptr inbounds [7 x i32], ptr %7, i64 0, i64 %42
  store i32 %40, ptr %43, align 4, !tbaa !12
  br label %44

44:                                               ; preds = %38
  %45 = load i32, ptr %8, align 4, !tbaa !12
  %46 = add nsw i32 %45, 1
  store i32 %46, ptr %8, align 4, !tbaa !12
  br label %35, !llvm.loop !62

47:                                               ; preds = %35
  %48 = load ptr, ptr %3, align 8, !tbaa !3
  %49 = getelementptr inbounds nuw %struct.Pf_Man_t_, ptr %48, i32 0, i32 5
  %50 = load i32, ptr %4, align 4, !tbaa !12
  %51 = call ptr @Mio_CollectRootsNewDefault(i32 noundef 6, ptr noundef %49, i32 noundef %50)
  %52 = load ptr, ptr %3, align 8, !tbaa !3
  %53 = getelementptr inbounds nuw %struct.Pf_Man_t_, ptr %52, i32 0, i32 4
  store ptr %51, ptr %53, align 8, !tbaa !63
  store i32 4, ptr %8, align 4, !tbaa !12
  br label %54

54:                                               ; preds = %71, %47
  %55 = load i32, ptr %8, align 4, !tbaa !12
  %56 = load ptr, ptr %3, align 8, !tbaa !3
  %57 = getelementptr inbounds nuw %struct.Pf_Man_t_, ptr %56, i32 0, i32 5
  %58 = load i32, ptr %57, align 8, !tbaa !64
  %59 = icmp slt i32 %55, %58
  br i1 %59, label %60, label %74

60:                                               ; preds = %54
  %61 = load ptr, ptr %3, align 8, !tbaa !3
  %62 = load ptr, ptr %3, align 8, !tbaa !3
  %63 = getelementptr inbounds nuw %struct.Pf_Man_t_, ptr %62, i32 0, i32 4
  %64 = load ptr, ptr %63, align 8, !tbaa !63
  %65 = load i32, ptr %8, align 4, !tbaa !12
  %66 = sext i32 %65 to i64
  %67 = getelementptr inbounds %struct.Mio_Cell_t_, ptr %64, i64 %66
  %68 = getelementptr inbounds [7 x ptr], ptr %5, i64 0, i64 0
  %69 = getelementptr inbounds [7 x ptr], ptr %6, i64 0, i64 0
  %70 = getelementptr inbounds [7 x i32], ptr %7, i64 0, i64 0
  call void @Pf_StoCreateGate(ptr noundef %61, ptr noundef %67, ptr noundef %68, ptr noundef %69, ptr noundef %70)
  br label %71

71:                                               ; preds = %60
  %72 = load i32, ptr %8, align 4, !tbaa !12
  %73 = add nsw i32 %72, 1
  store i32 %73, ptr %8, align 4, !tbaa !12
  br label %54, !llvm.loop !65

74:                                               ; preds = %54
  store i32 2, ptr %8, align 4, !tbaa !12
  br label %75

75:                                               ; preds = %94, %74
  %76 = load i32, ptr %8, align 4, !tbaa !12
  %77 = icmp sle i32 %76, 6
  br i1 %77, label %78, label %97

78:                                               ; preds = %75
  %79 = load i32, ptr %8, align 4, !tbaa !12
  %80 = sext i32 %79 to i64
  %81 = getelementptr inbounds [7 x ptr], ptr %5, i64 0, i64 %80
  %82 = load ptr, ptr %81, align 8, !tbaa !10
  %83 = icmp ne ptr %82, null
  br i1 %83, label %84, label %92

84:                                               ; preds = %78
  %85 = load i32, ptr %8, align 4, !tbaa !12
  %86 = sext i32 %85 to i64
  %87 = getelementptr inbounds [7 x ptr], ptr %5, i64 0, i64 %86
  %88 = load ptr, ptr %87, align 8, !tbaa !10
  call void @free(ptr noundef %88) #13
  %89 = load i32, ptr %8, align 4, !tbaa !12
  %90 = sext i32 %89 to i64
  %91 = getelementptr inbounds [7 x ptr], ptr %5, i64 0, i64 %90
  store ptr null, ptr %91, align 8, !tbaa !10
  br label %93

92:                                               ; preds = %78
  br label %93

93:                                               ; preds = %92, %84
  br label %94

94:                                               ; preds = %93
  %95 = load i32, ptr %8, align 4, !tbaa !12
  %96 = add nsw i32 %95, 1
  store i32 %96, ptr %8, align 4, !tbaa !12
  br label %75, !llvm.loop !66

97:                                               ; preds = %75
  store i32 2, ptr %8, align 4, !tbaa !12
  br label %98

98:                                               ; preds = %117, %97
  %99 = load i32, ptr %8, align 4, !tbaa !12
  %100 = icmp sle i32 %99, 6
  br i1 %100, label %101, label %120

101:                                              ; preds = %98
  %102 = load i32, ptr %8, align 4, !tbaa !12
  %103 = sext i32 %102 to i64
  %104 = getelementptr inbounds [7 x ptr], ptr %6, i64 0, i64 %103
  %105 = load ptr, ptr %104, align 8, !tbaa !10
  %106 = icmp ne ptr %105, null
  br i1 %106, label %107, label %115

107:                                              ; preds = %101
  %108 = load i32, ptr %8, align 4, !tbaa !12
  %109 = sext i32 %108 to i64
  %110 = getelementptr inbounds [7 x ptr], ptr %6, i64 0, i64 %109
  %111 = load ptr, ptr %110, align 8, !tbaa !10
  call void @free(ptr noundef %111) #13
  %112 = load i32, ptr %8, align 4, !tbaa !12
  %113 = sext i32 %112 to i64
  %114 = getelementptr inbounds [7 x ptr], ptr %6, i64 0, i64 %113
  store ptr null, ptr %114, align 8, !tbaa !10
  br label %116

115:                                              ; preds = %101
  br label %116

116:                                              ; preds = %115, %107
  br label %117

117:                                              ; preds = %116
  %118 = load i32, ptr %8, align 4, !tbaa !12
  %119 = add nsw i32 %118, 1
  store i32 %119, ptr %8, align 4, !tbaa !12
  br label %98, !llvm.loop !67

120:                                              ; preds = %98
  call void @llvm.lifetime.end.p0(i64 4, ptr %8) #13
  call void @llvm.lifetime.end.p0(i64 28, ptr %7) #13
  call void @llvm.lifetime.end.p0(i64 56, ptr %6) #13
  call void @llvm.lifetime.end.p0(i64 56, ptr %5) #13
  ret void
}