; Function Attrs: nounwind uwtable
define void @Pf_StoDeriveMatches(ptr noundef %0, i32 noundef %1) local_unnamed_addr #0 {
  %3 = alloca [7 x ptr], align 16
  %4 = alloca [7 x ptr], align 16
  %5 = alloca [7 x i32], align 16
  call void @llvm.lifetime.start.p0(i64 56, ptr nonnull %3) #23
  call void @llvm.lifetime.start.p0(i64 56, ptr nonnull %4) #23
  call void @llvm.lifetime.start.p0(i64 28, ptr nonnull %5) #23
  br label %6

6:                                                ; preds = %2, %6
  %indvars.iv = phi i64 [ 2, %2 ], [ %indvars.iv.next, %6 ]
  %7 = trunc nuw nsw i64 %indvars.iv to i32
  %8 = tail call ptr @Extra_GreyCodeSchedule(i32 noundef %7) #23
  %9 = getelementptr inbounds nuw [7 x ptr], ptr %3, i64 0, i64 %indvars.iv
  store ptr %8, ptr %9, align 8, !tbaa !59
  %indvars.iv.next = add nuw nsw i64 %indvars.iv, 1
  %exitcond.not = icmp eq i64 %indvars.iv.next, 7
  br i1 %exitcond.not, label %.preheader35, label %6, !llvm.loop !62

.preheader35:                                     ; preds = %6, %.preheader35
  %indvars.iv43 = phi i64 [ %indvars.iv.next44, %.preheader35 ], [ 2, %6 ]
  %10 = trunc nuw nsw i64 %indvars.iv43 to i32
  %11 = tail call ptr @Extra_PermSchedule(i32 noundef %10) #23
  %12 = getelementptr inbounds nuw [7 x ptr], ptr %4, i64 0, i64 %indvars.iv43
  store ptr %11, ptr %12, align 8, !tbaa !59
  %indvars.iv.next44 = add nuw nsw i64 %indvars.iv43, 1
  %exitcond46.not = icmp eq i64 %indvars.iv.next44, 7
  br i1 %exitcond46.not, label %.preheader34, label %.preheader35, !llvm.loop !63

.preheader34:                                     ; preds = %.preheader35, %.preheader34
  %indvars.iv47 = phi i64 [ %indvars.iv.next48, %.preheader34 ], [ 2, %.preheader35 ]
  %13 = trunc nuw nsw i64 %indvars.iv47 to i32
  %14 = tail call i32 @Extra_Factorial(i32 noundef %13) #23
  %15 = getelementptr inbounds nuw [7 x i32], ptr %5, i64 0, i64 %indvars.iv47
  store i32 %14, ptr %15, align 4, !tbaa !31
  %indvars.iv.next48 = add nuw nsw i64 %indvars.iv47, 1
  %exitcond50.not = icmp eq i64 %indvars.iv.next48, 7
  br i1 %exitcond50.not, label %16, label %.preheader34, !llvm.loop !64

16:                                               ; preds = %.preheader34
  %17 = getelementptr inbounds nuw i8, ptr %0, i64 40
  %18 = tail call ptr @Mio_CollectRootsNewDefault(i32 noundef 6, ptr noundef nonnull %17, i32 noundef %1) #23
  %19 = getelementptr inbounds nuw i8, ptr %0, i64 32
  store ptr %18, ptr %19, align 8, !tbaa !65
  %20 = load i32, ptr %17, align 8, !tbaa !66
  %21 = icmp sgt i32 %20, 4
  br i1 %21, label %.lr.ph, label %.preheader33.preheader

.lr.ph:                                           ; preds = %16, %.lr.ph
  %indvars.iv51 = phi i64 [ %indvars.iv.next52, %.lr.ph ], [ 4, %16 ]
  %22 = load ptr, ptr %19, align 8, !tbaa !65
  %23 = getelementptr inbounds nuw %struct.Mio_Cell_t_, ptr %22, i64 %indvars.iv51
  call void @Pf_StoCreateGate(ptr noundef nonnull %0, ptr noundef nonnull %23, ptr noundef nonnull %3, ptr noundef nonnull %4, ptr noundef nonnull %5)
  %indvars.iv.next52 = add nuw nsw i64 %indvars.iv51, 1
  %24 = load i32, ptr %17, align 8, !tbaa !66
  %25 = sext i32 %24 to i64
  %26 = icmp slt i64 %indvars.iv.next52, %25
  br i1 %26, label %.lr.ph, label %.preheader33.preheader, !llvm.loop !67

.preheader33.preheader:                           ; preds = %.lr.ph, %16
  br label %.preheader33

.preheader33:                                     ; preds = %.preheader33.preheader, %30
  %indvars.iv54 = phi i64 [ %indvars.iv.next55, %30 ], [ 2, %.preheader33.preheader ]
  %27 = getelementptr inbounds nuw [7 x ptr], ptr %3, i64 0, i64 %indvars.iv54
  %28 = load ptr, ptr %27, align 8, !tbaa !59
  %.not32 = icmp eq ptr %28, null
  br i1 %.not32, label %30, label %29

29:                                               ; preds = %.preheader33
  tail call void @free(ptr noundef nonnull %28) #23
  store ptr null, ptr %27, align 8, !tbaa !59
  br label %30

30:                                               ; preds = %29, %.preheader33
  %indvars.iv.next55 = add nuw nsw i64 %indvars.iv54, 1
  %exitcond57.not = icmp eq i64 %indvars.iv.next55, 7
  br i1 %exitcond57.not, label %.preheader, label %.preheader33, !llvm.loop !68

.preheader:                                       ; preds = %30, %34
  %indvars.iv58 = phi i64 [ %indvars.iv.next59, %34 ], [ 2, %30 ]
  %31 = getelementptr inbounds nuw [7 x ptr], ptr %4, i64 0, i64 %indvars.iv58
  %32 = load ptr, ptr %31, align 8, !tbaa !59
  %.not = icmp eq ptr %32, null
  br i1 %.not, label %34, label %33

33:                                               ; preds = %.preheader
  tail call void @free(ptr noundef nonnull %32) #23
  store ptr null, ptr %31, align 8, !tbaa !59
  br label %34

34:                                               ; preds = %33, %.preheader
  %indvars.iv.next59 = add nuw nsw i64 %indvars.iv58, 1
  %exitcond61.not = icmp eq i64 %indvars.iv.next59, 7
  br i1 %exitcond61.not, label %35, label %.preheader, !llvm.loop !69

35:                                               ; preds = %34
  call void @llvm.lifetime.end.p0(i64 28, ptr nonnull %5) #23
  call void @llvm.lifetime.end.p0(i64 56, ptr nonnull %4) #23
  call void @llvm.lifetime.end.p0(i64 56, ptr nonnull %3) #23
  ret void
}